#include <math.h>
#include <stdio.h>
#include <stdlib.h>
#include <string.h>

int main()
{
    int w;
    int i,j;
    int day[12]={31,28,31,30,31,30,31,31,30,31,30,31};
    scanf("%d",&w);
    w--;
    for (i=0;i<12;i++)
        for (j=1;j<=day[i];j++)
            {
               w++;
               if (w>7) w=w-7;
               if ((j==13)&&(w==5))
                  printf("%d\n",i+1);
            }
}
    
